; ModuleID = '21/84.c'
source_filename = "21/84.c"
target datalayout = "e-m:e-p270:32:32-p271:32:32-p272:64:64-i64:64-f80:128-n8:16:32:64-S128"
target triple = "x86_64-pc-linux-gnu"

@.str = private unnamed_addr constant [3 x i8] c"%d\00", align 1
@.str.1 = private unnamed_addr constant [4 x i8] c",%d\00", align 1

; Function Attrs: noinline nounwind uwtable
define dso_local void @main() #0 {
  %1 = alloca i32, align 4
  %2 = alloca i32, align 4
  %3 = alloca [305 x i32], align 16
  %4 = alloca i32, align 4
  %5 = alloca i32, align 4
  %6 = alloca i32, align 4
  %7 = alloca i32, align 4
  %8 = alloca i32, align 4
  store i32 0, i32* %7, align 4
  %9 = call i32 (i8*, ...) @__isoc99_scanf(i8* getelementptr inbounds ([3 x i8], [3 x i8]* @.str, i64 0, i64 0), i32* %2)
  store i32 0, i32* %1, align 4
  store i32 0, i32* %4, align 4
  br label %10

10:                                               ; preds = %25, %0
  %11 = load i32, i32* %1, align 4
  %12 = load i32, i32* %2, align 4
  %13 = icmp slt i32 %11, %12
  br i1 %13, label %14, label %28

14:                                               ; preds = %10
  %15 = load i32, i32* %1, align 4
  %16 = sext i32 %15 to i64
  %17 = getelementptr inbounds [305 x i32], [305 x i32]* %3, i64 0, i64 %16
  %18 = call i32 (i8*, ...) @__isoc99_scanf(i8* getelementptr inbounds ([3 x i8], [3 x i8]* @.str, i64 0, i64 0), i32* %17)
  %19 = load i32, i32* %1, align 4
  %20 = sext i32 %19 to i64
  %21 = getelementptr inbounds [305 x i32], [305 x i32]* %3, i64 0, i64 %20
  %22 = load i32, i32* %21, align 4
  %23 = load i32, i32* %4, align 4
  %24 = add nsw i32 %23, %22
  store i32 %24, i32* %4, align 4
  br label %25

25:                                               ; preds = %14
  %26 = load i32, i32* %1, align 4
  %27 = add nsw i32 %26, 1
  store i32 %27, i32* %1, align 4
  br label %10

28:                                               ; preds = %10
  %29 = load i32, i32* %4, align 4
  %30 = load i32, i32* %2, align 4
  %31 = add nsw i32 %29, %30
  %32 = sub nsw i32 %31, 2
  %33 = load i32, i32* %2, align 4
  %34 = sdiv i32 %32, %33
  store i32 %34, i32* %6, align 4
  store i32 0, i32* %1, align 4
  br label %35

35:                                               ; preds = %58, %28
  %36 = load i32, i32* %1, align 4
  %37 = load i32, i32* %2, align 4
  %38 = icmp slt i32 %36, %37
  br i1 %38, label %39, label %61

39:                                               ; preds = %35
  %40 = load i32, i32* %1, align 4
  %41 = sext i32 %40 to i64
  %42 = getelementptr inbounds [305 x i32], [305 x i32]* %3, i64 0, i64 %41
  %43 = load i32, i32* %42, align 4
  %44 = load i32, i32* %6, align 4
  %45 = sub nsw i32 %43, %44
  store i32 %45, i32* %8, align 4
  %46 = load i32, i32* %8, align 4
  %47 = icmp slt i32 %46, 0
  br i1 %47, label %48, label %51

48:                                               ; preds = %39
  %49 = load i32, i32* %8, align 4
  %50 = sub nsw i32 0, %49
  store i32 %50, i32* %8, align 4
  br label %51

51:                                               ; preds = %48, %39
  %52 = load i32, i32* %7, align 4
  %53 = load i32, i32* %8, align 4
  %54 = icmp slt i32 %52, %53
  br i1 %54, label %55, label %57

55:                                               ; preds = %51
  %56 = load i32, i32* %8, align 4
  store i32 %56, i32* %7, align 4
  br label %57

57:                                               ; preds = %55, %51
  br label %58

58:                                               ; preds = %57
  %59 = load i32, i32* %1, align 4
  %60 = add nsw i32 %59, 1
  store i32 %60, i32* %1, align 4
  br label %35

61:                                               ; preds = %35
  store i32 0, i32* %1, align 4
  br label %62

62:                                               ; preds = %85, %61
  %63 = load i32, i32* %1, align 4
  %64 = sext i32 %63 to i64
  %65 = getelementptr inbounds [305 x i32], [305 x i32]* %3, i64 0, i64 %64
  %66 = load i32, i32* %65, align 4
  %67 = load i32, i32* %6, align 4
  %68 = sub nsw i32 %66, %67
  store i32 %68, i32* %8, align 4
  %69 = load i32, i32* %8, align 4
  %70 = load i32, i32* %7, align 4
  %71 = icmp eq i32 %69, %70
  br i1 %71, label %77, label %72

72:                                               ; preds = %62
  %73 = load i32, i32* %8, align 4
  %74 = load i32, i32* %7, align 4
  %75 = sub nsw i32 0, %74
  %76 = icmp eq i32 %73, %75
  br i1 %76, label %77, label %84

77:                                               ; preds = %72, %62
  %78 = load i32, i32* %1, align 4
  %79 = sext i32 %78 to i64
  %80 = getelementptr inbounds [305 x i32], [305 x i32]* %3, i64 0, i64 %79
  %81 = load i32, i32* %80, align 4
  %82 = call i32 (i8*, ...) @printf(i8* getelementptr inbounds ([3 x i8], [3 x i8]* @.str, i64 0, i64 0), i32 %81)
  %83 = load i32, i32* %1, align 4
  store i32 %83, i32* %5, align 4
  br label %88

84:                                               ; preds = %72
  br label %85

85:                                               ; preds = %84
  %86 = load i32, i32* %1, align 4
  %87 = add nsw i32 %86, 1
  store i32 %87, i32* %1, align 4
  br label %62

88:                                               ; preds = %77
  %89 = load i32, i32* %5, align 4
  %90 = add nsw i32 %89, 1
  store i32 %90, i32* %1, align 4
  br label %91

91:                                               ; preds = %117, %88
  %92 = load i32, i32* %1, align 4
  %93 = load i32, i32* %2, align 4
  %94 = icmp slt i32 %92, %93
  br i1 %94, label %95, label %120

95:                                               ; preds = %91
  %96 = load i32, i32* %1, align 4
  %97 = sext i32 %96 to i64
  %98 = getelementptr inbounds [305 x i32], [305 x i32]* %3, i64 0, i64 %97
  %99 = load i32, i32* %98, align 4
  %100 = load i32, i32* %6, align 4
  %101 = sub nsw i32 %99, %100
  store i32 %101, i32* %8, align 4
  %102 = load i32, i32* %8, align 4
  %103 = load i32, i32* %7, align 4
  %104 = icmp eq i32 %102, %103
  br i1 %104, label %110, label %105

105:                                              ; preds = %95
  %106 = load i32, i32* %8, align 4
  %107 = load i32, i32* %7, align 4
  %108 = sub nsw i32 0, %107
  %109 = icmp eq i32 %106, %108
  br i1 %109, label %110, label %116

110:                                              ; preds = %105, %95
  %111 = load i32, i32* %1, align 4
  %112 = sext i32 %111 to i64
  %113 = getelementptr inbounds [305 x i32], [305 x i32]* %3, i64 0, i64 %112
  %114 = load i32, i32* %113, align 4
  %115 = call i32 (i8*, ...) @printf(i8* getelementptr inbounds ([4 x i8], [4 x i8]* @.str.1, i64 0, i64 0), i32 %114)
  br label %116

116:                                              ; preds = %110, %105
  br label %117

117:                                              ; preds = %116
  %118 = load i32, i32* %1, align 4
  %119 = add nsw i32 %118, 1
  store i32 %119, i32* %1, align 4
  br label %91

120:                                              ; preds = %91
  ret void
}

declare dso_local i32 @__isoc99_scanf(i8*, ...) #1

declare dso_local i32 @printf(i8*, ...) #1


!llvm.module.flags = !{!0}
!llvm.ident = !{!1}

!0 = !{i32 1, !"wchar_size", i32 4}
!1 = !{!"clang version 10.0.0-4ubuntu1 "}
